target datalayout = "e-m:e-p270:32:32-p271:32:32-p272:64:64-i64:64-i128:128-f80:128-n8:16:32:64-S128"
target triple = "x86_64-pc-linux-gnu"

%"class.std::__cxx11::basic_string" = type { %"struct.std::__cxx11::basic_string<char>::_Alloc_hider", i64, %union.anon }
%"struct.std::__cxx11::basic_string<char>::_Alloc_hider" = type { ptr }
%union.anon = type { i64, [8 x i8] }
%"struct.faiss::IndexFlatCodes" = type { %"struct.faiss::Index.base", i64, %"class.std::vector" }
%"struct.faiss::Index.base" = type <{ ptr, i32, [4 x i8], i64, i8, i8, [2 x i8], i32, float }>
%"class.std::vector" = type { %"struct.std::_Vector_base" }
%"struct.std::_Vector_base" = type { %"struct.std::_Vector_base<unsigned char, std::allocator<unsigned char>>::_Vector_impl" }
%"struct.std::_Vector_base<unsigned char, std::allocator<unsigned char>>::_Vector_impl" = type { %"struct.std::_Vector_base<unsigned char, std::allocator<unsigned char>>::_Vector_impl_data" }
%"struct.std::_Vector_base<unsigned char, std::allocator<unsigned char>>::_Vector_impl_data" = type { ptr, ptr, ptr }
%"struct.faiss::AdditiveQuantizer" = type <{ %"struct.faiss::Quantizer", i64, %"class.std::vector.0", %"class.std::vector.5", %"class.std::vector.0", i64, i64, i64, i8, i8, i8, [5 x i8], %"struct.faiss::IndexFlat1D", %"class.std::vector.5", i64, i32, float, float, [4 x i8] }>
%"struct.faiss::Quantizer" = type { ptr, i64, i64 }
%"class.std::vector.0" = type { %"struct.std::_Vector_base.1" }
%"struct.std::_Vector_base.1" = type { %"struct.std::_Vector_base<unsigned long, std::allocator<unsigned long>>::_Vector_impl" }
%"struct.std::_Vector_base<unsigned long, std::allocator<unsigned long>>::_Vector_impl" = type { %"struct.std::_Vector_base<unsigned long, std::allocator<unsigned long>>::_Vector_impl_data" }
%"struct.std::_Vector_base<unsigned long, std::allocator<unsigned long>>::_Vector_impl_data" = type { ptr, ptr, ptr }
%"struct.faiss::IndexFlat1D" = type { %"struct.faiss::IndexFlatL2", i8, %"class.std::vector.10" }
%"struct.faiss::IndexFlatL2" = type { %"struct.faiss::IndexFlat", %"class.std::vector.5" }
%"struct.faiss::IndexFlat" = type { %"struct.faiss::IndexFlatCodes" }
%"class.std::vector.10" = type { %"struct.std::_Vector_base.11" }
%"struct.std::_Vector_base.11" = type { %"struct.std::_Vector_base<long, std::allocator<long>>::_Vector_impl" }
%"struct.std::_Vector_base<long, std::allocator<long>>::_Vector_impl" = type { %"struct.std::_Vector_base<long, std::allocator<long>>::_Vector_impl_data" }
%"struct.std::_Vector_base<long, std::allocator<long>>::_Vector_impl_data" = type { ptr, ptr, ptr }
%"class.std::vector.5" = type { %"struct.std::_Vector_base.6" }
%"struct.std::_Vector_base.6" = type { %"struct.std::_Vector_base<float, std::allocator<float>>::_Vector_impl" }
%"struct.std::_Vector_base<float, std::allocator<float>>::_Vector_impl" = type { %"struct.std::_Vector_base<float, std::allocator<float>>::_Vector_impl_data" }
%"struct.std::_Vector_base<float, std::allocator<float>>::_Vector_impl_data" = type { ptr, ptr, ptr }
%"struct.faiss::Index" = type <{ ptr, i32, [4 x i8], i64, i8, i8, [2 x i8], i32, float, [4 x i8] }>
%"struct.faiss::ResidualQuantizer" = type { %"struct.faiss::AdditiveQuantizer.base", i32, i32, i32, i32, i32, %"struct.faiss::ProgressiveDimClusteringParameters", ptr, %"class.std::vector.5", %"class.std::vector.5" }
%"struct.faiss::AdditiveQuantizer.base" = type <{ %"struct.faiss::Quantizer", i64, %"class.std::vector.0", %"class.std::vector.5", %"class.std::vector.0", i64, i64, i64, i8, i8, i8, [5 x i8], %"struct.faiss::IndexFlat1D", %"class.std::vector.5", i64, i32, float, float }>
%"struct.faiss::ProgressiveDimClusteringParameters" = type <{ %"struct.faiss::ClusteringParameters", i32, i8, [3 x i8] }>
%"struct.faiss::ClusteringParameters" = type { i32, i32, i8, i8, i8, i8, i8, i32, i32, i32, i64 }
%"struct.faiss::AdditiveCoarseQuantizer" = type { %"struct.faiss::Index.base", ptr, %"class.std::vector.5" }
%"struct.faiss::ResidualCoarseQuantizer" = type <{ %"struct.faiss::AdditiveCoarseQuantizer", %"struct.faiss::ResidualQuantizer", float, [4 x i8] }>

@.str = private unnamed_addr constant [19 x i8] c"Error: '%s' failed\00", align 1
@.str.2 = private unnamed_addr constant [122 x i8] c"generated/home/dtcxzyw/WorkSpace/Projects/compilers/llvm-opt-benchmark/bench/faiss/faiss/faiss/IndexAdditiveQuantizer.cpp\00", align 1
@_ZTIN5faiss14FaissExceptionE = external constant ptr
@.str.21 = private unnamed_addr constant [19 x i8] c"rq.M <= other.rq.M\00", align 1
@__PRETTY_FUNCTION__._ZN5faiss23ResidualCoarseQuantizer15initialize_fromERKS0_ = private unnamed_addr constant [86 x i8] c"void faiss::ResidualCoarseQuantizer::initialize_from(const ResidualCoarseQuantizer &)\00", align 1

; Function Attrs: mustprogress uwtable
define void @_ZN5faiss23ResidualCoarseQuantizer15initialize_fromERKS0_(ptr noundef nonnull align 8 dereferenceable(508) %0, ptr noundef nonnull align 8 dereferenceable(508) %1) #2 align 2 personality ptr @__gxx_personality_v0 {
  %3 = alloca ptr, align 8
  %4 = alloca ptr, align 8
  %5 = alloca %"class.std::__cxx11::basic_string", align 8
  %6 = alloca i32, align 4
  %7 = alloca ptr, align 8
  %8 = alloca i32, align 4
  store ptr %0, ptr %3, align 8
  store ptr %1, ptr %4, align 8
  %9 = load ptr, ptr %3, align 8
  br label %10

10:                                               ; preds = %2
  %11 = getelementptr inbounds %"struct.faiss::ResidualCoarseQuantizer", ptr %9, i32 0, i32 1
  %12 = getelementptr inbounds %"struct.faiss::AdditiveQuantizer", ptr %11, i32 0, i32 1
  %13 = load i64, ptr %12, align 8
  %14 = load ptr, ptr %4, align 8
  %15 = getelementptr inbounds %"struct.faiss::ResidualCoarseQuantizer", ptr %14, i32 0, i32 1
  %16 = getelementptr inbounds %"struct.faiss::AdditiveQuantizer", ptr %15, i32 0, i32 1
  %17 = load i64, ptr %16, align 8
  %18 = icmp ule i64 %13, %17
  br i1 %18, label %42, label %19

19:                                               ; preds = %10
  br label %20

20:                                               ; preds = %19
  call void @_ZNSt7__cxx1112basic_stringIcSt11char_traitsIcESaIcEEC1Ev(ptr noundef nonnull align 8 dereferenceable(32) %5) #11
  %21 = call i32 (ptr, i64, ptr, ...) @snprintf(ptr noundef null, i64 noundef 0, ptr noundef @.str, ptr noundef @.str.21) #11
  store i32 %21, ptr %6, align 4
  %22 = load i32, ptr %6, align 4
  %23 = add nsw i32 %22, 1
  %24 = sext i32 %23 to i64
  invoke void @_ZNSt7__cxx1112basic_stringIcSt11char_traitsIcESaIcEE6resizeEm(ptr noundef nonnull align 8 dereferenceable(32) %5, i64 noundef %24)
          to label %25 unwind label %32

25:                                               ; preds = %20
  %26 = invoke noundef nonnull align 1 dereferenceable(1) ptr @_ZNSt7__cxx1112basic_stringIcSt11char_traitsIcESaIcEEixEm(ptr noundef nonnull align 8 dereferenceable(32) %5, i64 noundef 0)
          to label %27 unwind label %32

27:                                               ; preds = %25
  %28 = call noundef i64 @_ZNKSt7__cxx1112basic_stringIcSt11char_traitsIcESaIcEE4sizeEv(ptr noundef nonnull align 8 dereferenceable(32) %5) #11
  %29 = call i32 (ptr, i64, ptr, ...) @snprintf(ptr noundef %26, i64 noundef %28, ptr noundef @.str, ptr noundef @.str.21) #11
  %30 = call ptr @__cxa_allocate_exception(i64 40) #11
  invoke void @_ZN5faiss14FaissExceptionC1ERKNSt7__cxx1112basic_stringIcSt11char_traitsIcESaIcEEEPKcSA_i(ptr noundef nonnull align 8 dereferenceable(40) %30, ptr noundef nonnull align 8 dereferenceable(32) %5, ptr noundef @__PRETTY_FUNCTION__._ZN5faiss23ResidualCoarseQuantizer15initialize_fromERKS0_, ptr noundef @.str.2, i32 noundef 609)
          to label %31 unwind label %36

31:                                               ; preds = %27
  invoke void @__cxa_throw(ptr %30, ptr @_ZTIN5faiss14FaissExceptionE, ptr @_ZN5faiss14FaissExceptionD2Ev) #15
          to label %67 unwind label %32

32:                                               ; preds = %31, %25, %20
  %33 = landingpad { ptr, i32 }
          cleanup
  %34 = extractvalue { ptr, i32 } %33, 0
  store ptr %34, ptr %7, align 8
  %35 = extractvalue { ptr, i32 } %33, 1
  store i32 %35, ptr %8, align 4
  br label %40

36:                                               ; preds = %27
  %37 = landingpad { ptr, i32 }
          cleanup
  %38 = extractvalue { ptr, i32 } %37, 0
  store ptr %38, ptr %7, align 8
  %39 = extractvalue { ptr, i32 } %37, 1
  store i32 %39, ptr %8, align 4
  call void @__cxa_free_exception(ptr %30) #11
  br label %40

40:                                               ; preds = %36, %32
  call void @_ZNSt7__cxx1112basic_stringIcSt11char_traitsIcESaIcEED1Ev(ptr noundef nonnull align 8 dereferenceable(32) %5) #11
  br label %62

41:                                               ; No predecessors!
  br label %42

42:                                               ; preds = %41, %10
  br label %43

43:                                               ; preds = %42
  %44 = getelementptr inbounds %"struct.faiss::ResidualCoarseQuantizer", ptr %9, i32 0, i32 1
  %45 = load ptr, ptr %4, align 8
  %46 = getelementptr inbounds %"struct.faiss::ResidualCoarseQuantizer", ptr %45, i32 0, i32 1
  call void @_ZN5faiss17ResidualQuantizer15initialize_fromERKS0_i(ptr noundef nonnull align 8 dereferenceable(432) %44, ptr noundef nonnull align 8 dereferenceable(432) %46, i32 noundef 0)
  %47 = load ptr, ptr %4, align 8
  %48 = getelementptr inbounds %"struct.faiss::ResidualCoarseQuantizer", ptr %47, i32 0, i32 2
  %49 = load float, ptr %48, align 8
  call void @_ZN5faiss23ResidualCoarseQuantizer15set_beam_factorEf(ptr noundef nonnull align 8 dereferenceable(508) %9, float noundef %49)
  %50 = load ptr, ptr %4, align 8
  %51 = getelementptr inbounds %"struct.faiss::Index", ptr %50, i32 0, i32 5
  %52 = load i8, ptr %51, align 1
  %53 = trunc i8 %52 to i1
  %54 = getelementptr inbounds %"struct.faiss::Index", ptr %9, i32 0, i32 5
  %55 = zext i1 %53 to i8
  store i8 %55, ptr %54, align 1
  %56 = getelementptr inbounds %"struct.faiss::AdditiveCoarseQuantizer", ptr %9, i32 0, i32 1
  %57 = load ptr, ptr %56, align 8
  %58 = getelementptr inbounds %"struct.faiss::AdditiveQuantizer", ptr %57, i32 0, i32 5
  %59 = load i64, ptr %58, align 8
  %60 = shl i64 1, %59
  %61 = getelementptr inbounds %"struct.faiss::Index", ptr %9, i32 0, i32 3
  store i64 %60, ptr %61, align 8
  ret void

62:                                               ; preds = %40
  %63 = load ptr, ptr %7, align 8
  %64 = load i32, ptr %8, align 4
  %65 = insertvalue { ptr, i32 } poison, ptr %63, 0
  %66 = insertvalue { ptr, i32 } %65, i32 %64, 1
  resume { ptr, i32 } %66

67:                                               ; preds = %31
  unreachable
}