; Function Attrs: mustprogress uwtable
define void @_ZN5faiss23ResidualCoarseQuantizer15initialize_fromERKS0_(ptr noundef nonnull align 8 dereferenceable(508) %0, ptr noundef nonnull align 8 dereferenceable(508) %1) local_unnamed_addr #2 align 2 personality ptr @__gxx_personality_v0 {
  %3 = alloca %"class.std::__cxx11::basic_string", align 8
  %4 = getelementptr inbounds i8, ptr %0, i64 96
  %5 = load i64, ptr %4, align 8
  %6 = getelementptr inbounds i8, ptr %1, i64 96
  %7 = load i64, ptr %6, align 8
  %.not = icmp ugt i64 %5, %7
  br i1 %.not, label %8, label %24

8:                                                ; preds = %2
  call void @_ZNSt7__cxx1112basic_stringIcSt11char_traitsIcESaIcEEC1Ev(ptr noundef nonnull align 8 dereferenceable(32) %3) #14
  %9 = call i32 (ptr, i64, ptr, ...) @snprintf(ptr noundef null, i64 noundef 0, ptr noundef nonnull @.str, ptr noundef nonnull @.str.21) #14
  %10 = add nsw i32 %9, 1
  %11 = sext i32 %10 to i64
  invoke void @_ZNSt7__cxx1112basic_stringIcSt11char_traitsIcESaIcEE6resizeEm(ptr noundef nonnull align 8 dereferenceable(32) %3, i64 noundef %11)
          to label %12 unwind label %19

12:                                               ; preds = %8
  %13 = invoke noundef nonnull align 1 dereferenceable(1) ptr @_ZNSt7__cxx1112basic_stringIcSt11char_traitsIcESaIcEEixEm(ptr noundef nonnull align 8 dereferenceable(32) %3, i64 noundef 0)
          to label %14 unwind label %19

14:                                               ; preds = %12
  %15 = call noundef i64 @_ZNKSt7__cxx1112basic_stringIcSt11char_traitsIcESaIcEE4sizeEv(ptr noundef nonnull align 8 dereferenceable(32) %3) #14
  %16 = call i32 (ptr, i64, ptr, ...) @snprintf(ptr noundef nonnull %13, i64 noundef %15, ptr noundef nonnull @.str, ptr noundef nonnull @.str.21) #14
  %17 = call ptr @__cxa_allocate_exception(i64 40) #14
  invoke void @_ZN5faiss14FaissExceptionC1ERKNSt7__cxx1112basic_stringIcSt11char_traitsIcESaIcEEEPKcSA_i(ptr noundef nonnull align 8 dereferenceable(40) %17, ptr noundef nonnull align 8 dereferenceable(32) %3, ptr noundef nonnull @__PRETTY_FUNCTION__._ZN5faiss23ResidualCoarseQuantizer15initialize_fromERKS0_, ptr noundef nonnull @.str.2, i32 noundef 609)
          to label %18 unwind label %21

18:                                               ; preds = %14
  invoke void @__cxa_throw(ptr nonnull %17, ptr nonnull @_ZTIN5faiss14FaissExceptionE, ptr nonnull @_ZN5faiss14FaissExceptionD2Ev) #21
          to label %39 unwind label %19

19:                                               ; preds = %18, %12, %8
  %20 = landingpad { ptr, i32 }
          cleanup
  br label %23

21:                                               ; preds = %14
  %22 = landingpad { ptr, i32 }
          cleanup
  call void @__cxa_free_exception(ptr %17) #14
  br label %23

23:                                               ; preds = %21, %19
  %.pn = phi { ptr, i32 } [ %20, %19 ], [ %22, %21 ]
  call void @_ZNSt7__cxx1112basic_stringIcSt11char_traitsIcESaIcEED1Ev(ptr noundef nonnull align 8 dereferenceable(32) %3) #14
  resume { ptr, i32 } %.pn

24:                                               ; preds = %2
  %25 = getelementptr inbounds i8, ptr %1, i64 72
  %26 = getelementptr inbounds i8, ptr %0, i64 72
  tail call void @_ZN5faiss17ResidualQuantizer15initialize_fromERKS0_i(ptr noundef nonnull align 8 dereferenceable(432) %26, ptr noundef nonnull align 8 dereferenceable(432) %25, i32 noundef 0)
  %27 = getelementptr inbounds i8, ptr %1, i64 504
  %28 = load float, ptr %27, align 8
  tail call void @_ZN5faiss23ResidualCoarseQuantizer15set_beam_factorEf(ptr noundef nonnull align 8 dereferenceable(508) %0, float noundef %28)
  %29 = getelementptr inbounds i8, ptr %1, i64 25
  %30 = load i8, ptr %29, align 1
  %31 = and i8 %30, 1
  %32 = getelementptr inbounds i8, ptr %0, i64 25
  store i8 %31, ptr %32, align 1
  %33 = getelementptr inbounds i8, ptr %0, i64 40
  %34 = load ptr, ptr %33, align 8
  %35 = getelementptr inbounds i8, ptr %34, i64 104
  %36 = load i64, ptr %35, align 8
  %37 = shl nuw i64 1, %36
  %38 = getelementptr inbounds i8, ptr %0, i64 16
  store i64 %37, ptr %38, align 8
  ret void

39:                                               ; preds = %18
  unreachable
}